target datalayout = "e-m:e-p270:32:32-p271:32:32-p272:64:64-i64:64-i128:128-f80:128-n8:16:32:64-S128"
target triple = "x86_64-pc-linux-gnu"

; Function Attrs: nounwind uwtable
define ptr @ff_all_color_ranges() #0 {
  %1 = alloca ptr, align 8
  %2 = alloca ptr, align 8
  %3 = alloca i32, align 4
  %4 = alloca i32, align 4
  call void @llvm.lifetime.start.p0(i64 8, ptr %2) #7
  store ptr null, ptr %2, align 8, !tbaa !27
  call void @llvm.lifetime.start.p0(i64 4, ptr %3) #7
  store i32 0, ptr %3, align 4, !tbaa !21
  br label %5

5:                                                ; preds = %16, %0
  %6 = load i32, ptr %3, align 4, !tbaa !21
  %7 = icmp slt i32 %6, 3
  br i1 %7, label %9, label %8

8:                                                ; preds = %5
  store i32 2, ptr %4, align 4
  br label %19

9:                                                ; preds = %5
  %10 = load i32, ptr %3, align 4, !tbaa !21
  %11 = sext i32 %10 to i64
  %12 = call i32 @ff_add_format(ptr noundef %2, i64 noundef %11)
  %13 = icmp slt i32 %12, 0
  br i1 %13, label %14, label %15

14:                                               ; preds = %9
  store ptr null, ptr %1, align 8
  store i32 1, ptr %4, align 4
  br label %19

15:                                               ; preds = %9
  br label %16

16:                                               ; preds = %15
  %17 = load i32, ptr %3, align 4, !tbaa !21
  %18 = add nsw i32 %17, 1
  store i32 %18, ptr %3, align 4, !tbaa !21
  br label %5, !llvm.loop !70

19:                                               ; preds = %14, %8
  call void @llvm.lifetime.end.p0(i64 4, ptr %3) #7
  %20 = load i32, ptr %4, align 4
  switch i32 %20, label %23 [
    i32 2, label %21
  ]

21:                                               ; preds = %19
  %22 = load ptr, ptr %2, align 8, !tbaa !27
  store ptr %22, ptr %1, align 8
  store i32 1, ptr %4, align 4
  br label %23

23:                                               ; preds = %21, %19
  call void @llvm.lifetime.end.p0(i64 8, ptr %2) #7
  %24 = load ptr, ptr %1, align 8
  ret ptr %24
}

; Function Attrs: nounwind uwtable
define i32 @ff_set_common_all_color_ranges2(ptr noundef %0, ptr noundef %1, ptr noundef %2) #0 {
  %4 = alloca ptr, align 8
  %5 = alloca ptr, align 8
  %6 = alloca ptr, align 8
  store ptr %0, ptr %4, align 8, !tbaa !74
  store ptr %1, ptr %5, align 8, !tbaa !107
  store ptr %2, ptr %6, align 8, !tbaa !107
  %7 = load ptr, ptr %4, align 8, !tbaa !74
  %8 = load ptr, ptr %5, align 8, !tbaa !107
  %9 = load ptr, ptr %6, align 8, !tbaa !107
  %10 = call ptr @ff_all_color_ranges()
  %11 = call i32 @ff_set_common_color_ranges2(ptr noundef %7, ptr noundef %8, ptr noundef %9, ptr noundef %10)
  ret i32 %11
}