; Function Attrs: nounwind uwtable
define range(i32 -12, 1) i32 @ff_set_common_all_color_ranges2(ptr noundef readonly captures(none) %0, ptr noundef readonly captures(none) %1, ptr noundef readonly captures(none) %2) local_unnamed_addr #3 {
  %4 = alloca ptr, align 8
  call void @llvm.lifetime.start.p0(i64 8, ptr nonnull %4) #10
  store ptr null, ptr %4, align 8, !tbaa !23
  br label %5

5:                                                ; preds = %5, %3
  %indvars.iv.i = phi i64 [ 0, %3 ], [ %indvars.iv.next.i, %5 ]
  %6 = call i32 @ff_add_format(ptr noundef nonnull %4, i64 noundef %indvars.iv.i)
  %7 = icmp slt i32 %6, 0
  %indvars.iv.next.i = add nuw nsw i64 %indvars.iv.i, 1
  %exitcond.i = icmp eq i64 %indvars.iv.next.i, 3
  %or.cond.i = select i1 %7, i1 true, i1 %exitcond.i
  br i1 %or.cond.i, label %ff_all_color_ranges.exit, label %5, !llvm.loop !63

ff_all_color_ranges.exit:                         ; preds = %5
  %8 = load ptr, ptr %4, align 8
  %spec.select.i = select i1 %7, ptr null, ptr %8
  call void @llvm.lifetime.end.p0(i64 8, ptr nonnull %4) #10
  %9 = call i32 @ff_set_common_color_ranges2(ptr noundef %0, ptr noundef %1, ptr noundef %2, ptr noundef %spec.select.i)
  ret i32 %9
}